target datalayout = "e-m:e-p270:32:32-p271:32:32-p272:64:64-i64:64-i128:128-f80:128-n8:16:32:64-S128"
target triple = "x86_64-pc-linux-gnu"

%union.Value = type { ptr }
%struct.lua_State = type { ptr, i8, i8, i8, ptr, ptr, ptr, ptr, ptr, ptr, ptr, ptr, ptr, i32, i32, i16, i16, i8, i8, i32, i32, ptr, %struct.lua_TValue, %struct.lua_TValue, ptr, ptr, ptr, i64 }
%struct.lua_TValue = type { %union.Value, i32 }
%struct.global_State = type { %struct.stringtable, ptr, ptr, i8, i8, i32, ptr, ptr, ptr, ptr, ptr, ptr, %struct.Mbuffer, i64, i64, i64, i64, i32, i32, ptr, %struct.lua_TValue, ptr, %struct.UpVal, [9 x ptr], [17 x ptr] }
%struct.stringtable = type { ptr, i32, i32 }
%struct.Mbuffer = type { ptr, i64, i64 }
%struct.UpVal = type { ptr, i8, i8, ptr, %union.anon }
%union.anon = type { %struct.lua_TValue }
%struct.CallInfo = type { ptr, ptr, ptr, ptr, i32, i32 }
%struct.CClosure = type { ptr, i8, i8, i8, i8, ptr, ptr, ptr, [1 x %struct.lua_TValue] }

@luaO_nilobject_ = internal constant { %union.Value, i32, [4 x i8] } zeroinitializer, align 8
@luaT_typenames = internal constant [11 x ptr] [ptr @.str.22, ptr @.str.23, ptr @.str.24, ptr @.str.25, ptr @.str.26, ptr @.str.27, ptr @.str.28, ptr @.str.24, ptr @.str.29, ptr @.str.30, ptr @.str.31], align 16
@.str.133 = private unnamed_addr constant [9 x i8] c"no value\00", align 1

; Function Attrs: nounwind uwtable
define internal ptr @lua_typename(ptr noundef %0, i32 noundef %1) #0 {
  %3 = alloca ptr, align 8
  %4 = alloca i32, align 4
  store ptr %0, ptr %3, align 8, !tbaa !11
  store i32 %1, ptr %4, align 4, !tbaa !4
  %5 = load i32, ptr %4, align 4, !tbaa !4
  %6 = icmp eq i32 %5, -1
  br i1 %6, label %7, label %8

7:                                                ; preds = %2
  br label %13

8:                                                ; preds = %2
  %9 = load i32, ptr %4, align 4, !tbaa !4
  %10 = sext i32 %9 to i64
  %11 = getelementptr inbounds [11 x ptr], ptr @luaT_typenames, i64 0, i64 %10
  %12 = load ptr, ptr %11, align 8, !tbaa !13
  br label %13

13:                                               ; preds = %8, %7
  %14 = phi ptr [ @.str.133, %7 ], [ %12, %8 ]
  ret ptr %14
}

; Function Attrs: nounwind uwtable
define internal void @tag_error(ptr noundef %0, i32 noundef %1, i32 noundef %2) #0 {
  %4 = alloca ptr, align 8
  %5 = alloca i32, align 4
  %6 = alloca i32, align 4
  store ptr %0, ptr %4, align 8, !tbaa !11
  store i32 %1, ptr %5, align 4, !tbaa !4
  store i32 %2, ptr %6, align 4, !tbaa !4
  %7 = load ptr, ptr %4, align 8, !tbaa !11
  %8 = load i32, ptr %5, align 4, !tbaa !4
  %9 = load ptr, ptr %4, align 8, !tbaa !11
  %10 = load i32, ptr %6, align 4, !tbaa !4
  %11 = call ptr @lua_typename(ptr noundef %9, i32 noundef %10)
  %12 = call i32 @luaL_typerror(ptr noundef %7, i32 noundef %8, ptr noundef %11)
  ret void
}

; Function Attrs: nounwind uwtable
define internal ptr @index2adr(ptr noundef %0, i32 noundef %1) #0 {
  %3 = alloca ptr, align 8
  %4 = alloca ptr, align 8
  %5 = alloca i32, align 4
  %6 = alloca ptr, align 8
  %7 = alloca i32, align 4
  %8 = alloca ptr, align 8
  %9 = alloca ptr, align 8
  %10 = alloca ptr, align 8
  store ptr %0, ptr %4, align 8, !tbaa !11
  store i32 %1, ptr %5, align 4, !tbaa !4
  %11 = load i32, ptr %5, align 4, !tbaa !4
  %12 = icmp sgt i32 %11, 0
  br i1 %12, label %13, label %30

13:                                               ; preds = %2
  call void @llvm.lifetime.start.p0(i64 8, ptr %6) #14
  %14 = load ptr, ptr %4, align 8, !tbaa !11
  %15 = getelementptr inbounds nuw %struct.lua_State, ptr %14, i32 0, i32 5
  %16 = load ptr, ptr %15, align 8, !tbaa !67
  %17 = load i32, ptr %5, align 4, !tbaa !4
  %18 = sub nsw i32 %17, 1
  %19 = sext i32 %18 to i64
  %20 = getelementptr inbounds %struct.lua_TValue, ptr %16, i64 %19
  store ptr %20, ptr %6, align 8, !tbaa !44
  %21 = load ptr, ptr %6, align 8, !tbaa !44
  %22 = load ptr, ptr %4, align 8, !tbaa !11
  %23 = getelementptr inbounds nuw %struct.lua_State, ptr %22, i32 0, i32 4
  %24 = load ptr, ptr %23, align 8, !tbaa !43
  %25 = icmp uge ptr %21, %24
  br i1 %25, label %26, label %27

26:                                               ; preds = %13
  store ptr @luaO_nilobject_, ptr %3, align 8
  store i32 1, ptr %7, align 4
  br label %29

27:                                               ; preds = %13
  %28 = load ptr, ptr %6, align 8, !tbaa !44
  store ptr %28, ptr %3, align 8
  store i32 1, ptr %7, align 4
  br label %29

29:                                               ; preds = %27, %26
  call void @llvm.lifetime.end.p0(i64 8, ptr %6) #14
  br label %95

30:                                               ; preds = %2
  %31 = load i32, ptr %5, align 4, !tbaa !4
  %32 = icmp sgt i32 %31, -10000
  br i1 %32, label %33, label %40

33:                                               ; preds = %30
  %34 = load ptr, ptr %4, align 8, !tbaa !11
  %35 = getelementptr inbounds nuw %struct.lua_State, ptr %34, i32 0, i32 4
  %36 = load ptr, ptr %35, align 8, !tbaa !43
  %37 = load i32, ptr %5, align 4, !tbaa !4
  %38 = sext i32 %37 to i64
  %39 = getelementptr inbounds %struct.lua_TValue, ptr %36, i64 %38
  store ptr %39, ptr %3, align 8
  br label %95

40:                                               ; preds = %30
  %41 = load i32, ptr %5, align 4, !tbaa !4
  switch i32 %41, label %69 [
    i32 -10000, label %42
    i32 -10001, label %47
    i32 -10002, label %66
  ]

42:                                               ; preds = %40
  %43 = load ptr, ptr %4, align 8, !tbaa !11
  %44 = getelementptr inbounds nuw %struct.lua_State, ptr %43, i32 0, i32 6
  %45 = load ptr, ptr %44, align 8, !tbaa !25
  %46 = getelementptr inbounds nuw %struct.global_State, ptr %45, i32 0, i32 20
  store ptr %46, ptr %3, align 8
  br label %95

47:                                               ; preds = %40
  call void @llvm.lifetime.start.p0(i64 8, ptr %8) #14
  %48 = load ptr, ptr %4, align 8, !tbaa !11
  %49 = getelementptr inbounds nuw %struct.lua_State, ptr %48, i32 0, i32 7
  %50 = load ptr, ptr %49, align 8, !tbaa !58
  %51 = getelementptr inbounds nuw %struct.CallInfo, ptr %50, i32 0, i32 1
  %52 = load ptr, ptr %51, align 8, !tbaa !117
  %53 = getelementptr inbounds nuw %struct.lua_TValue, ptr %52, i32 0, i32 0
  %54 = load ptr, ptr %53, align 8, !tbaa !45
  store ptr %54, ptr %8, align 8, !tbaa !191
  call void @llvm.lifetime.start.p0(i64 8, ptr %9) #14
  %55 = load ptr, ptr %4, align 8, !tbaa !11
  %56 = getelementptr inbounds nuw %struct.lua_State, ptr %55, i32 0, i32 23
  store ptr %56, ptr %9, align 8, !tbaa !44
  %57 = load ptr, ptr %8, align 8, !tbaa !191
  %58 = getelementptr inbounds nuw %struct.CClosure, ptr %57, i32 0, i32 6
  %59 = load ptr, ptr %58, align 8, !tbaa !45
  %60 = load ptr, ptr %9, align 8, !tbaa !44
  %61 = getelementptr inbounds nuw %struct.lua_TValue, ptr %60, i32 0, i32 0
  store ptr %59, ptr %61, align 8, !tbaa !45
  %62 = load ptr, ptr %9, align 8, !tbaa !44
  %63 = getelementptr inbounds nuw %struct.lua_TValue, ptr %62, i32 0, i32 1
  store i32 5, ptr %63, align 8, !tbaa !46
  call void @llvm.lifetime.end.p0(i64 8, ptr %9) #14
  %64 = load ptr, ptr %4, align 8, !tbaa !11
  %65 = getelementptr inbounds nuw %struct.lua_State, ptr %64, i32 0, i32 23
  store ptr %65, ptr %3, align 8
  store i32 1, ptr %7, align 4
  call void @llvm.lifetime.end.p0(i64 8, ptr %8) #14
  br label %95

66:                                               ; preds = %40
  %67 = load ptr, ptr %4, align 8, !tbaa !11
  %68 = getelementptr inbounds nuw %struct.lua_State, ptr %67, i32 0, i32 22
  store ptr %68, ptr %3, align 8
  br label %95

69:                                               ; preds = %40
  call void @llvm.lifetime.start.p0(i64 8, ptr %10) #14
  %70 = load ptr, ptr %4, align 8, !tbaa !11
  %71 = getelementptr inbounds nuw %struct.lua_State, ptr %70, i32 0, i32 7
  %72 = load ptr, ptr %71, align 8, !tbaa !58
  %73 = getelementptr inbounds nuw %struct.CallInfo, ptr %72, i32 0, i32 1
  %74 = load ptr, ptr %73, align 8, !tbaa !117
  %75 = getelementptr inbounds nuw %struct.lua_TValue, ptr %74, i32 0, i32 0
  %76 = load ptr, ptr %75, align 8, !tbaa !45
  store ptr %76, ptr %10, align 8, !tbaa !191
  %77 = load i32, ptr %5, align 4, !tbaa !4
  %78 = sub nsw i32 -10002, %77
  store i32 %78, ptr %5, align 4, !tbaa !4
  %79 = load i32, ptr %5, align 4, !tbaa !4
  %80 = load ptr, ptr %10, align 8, !tbaa !191
  %81 = getelementptr inbounds nuw %struct.CClosure, ptr %80, i32 0, i32 4
  %82 = load i8, ptr %81, align 1, !tbaa !45
  %83 = zext i8 %82 to i32
  %84 = icmp sle i32 %79, %83
  br i1 %84, label %85, label %92

85:                                               ; preds = %69
  %86 = load ptr, ptr %10, align 8, !tbaa !191
  %87 = getelementptr inbounds nuw %struct.CClosure, ptr %86, i32 0, i32 8
  %88 = load i32, ptr %5, align 4, !tbaa !4
  %89 = sub nsw i32 %88, 1
  %90 = sext i32 %89 to i64
  %91 = getelementptr inbounds [1 x %struct.lua_TValue], ptr %87, i64 0, i64 %90
  br label %93

92:                                               ; preds = %69
  br label %93

93:                                               ; preds = %92, %85
  %94 = phi ptr [ %91, %85 ], [ @luaO_nilobject_, %92 ]
  store ptr %94, ptr %3, align 8
  store i32 1, ptr %7, align 4
  call void @llvm.lifetime.end.p0(i64 8, ptr %10) #14
  br label %95

95:                                               ; preds = %93, %66, %47, %42, %33, %29
  %96 = load ptr, ptr %3, align 8
  ret ptr %96
}

; Function Attrs: nounwind uwtable
define internal void @lua_insert(ptr noundef %0, i32 noundef %1) #0 {
  %3 = alloca ptr, align 8
  %4 = alloca i32, align 4
  %5 = alloca ptr, align 8
  %6 = alloca ptr, align 8
  %7 = alloca ptr, align 8
  %8 = alloca ptr, align 8
  %9 = alloca ptr, align 8
  %10 = alloca ptr, align 8
  store ptr %0, ptr %3, align 8, !tbaa !11
  store i32 %1, ptr %4, align 4, !tbaa !4
  call void @llvm.lifetime.start.p0(i64 8, ptr %5) #14
  call void @llvm.lifetime.start.p0(i64 8, ptr %6) #14
  %11 = load ptr, ptr %3, align 8, !tbaa !11
  %12 = load i32, ptr %4, align 4, !tbaa !4
  %13 = call ptr @index2adr(ptr noundef %11, i32 noundef %12)
  store ptr %13, ptr %5, align 8, !tbaa !44
  %14 = load ptr, ptr %3, align 8, !tbaa !11
  %15 = getelementptr inbounds nuw %struct.lua_State, ptr %14, i32 0, i32 4
  %16 = load ptr, ptr %15, align 8, !tbaa !43
  store ptr %16, ptr %6, align 8, !tbaa !44
  br label %17

17:                                               ; preds = %34, %2
  %18 = load ptr, ptr %6, align 8, !tbaa !44
  %19 = load ptr, ptr %5, align 8, !tbaa !44
  %20 = icmp ugt ptr %18, %19
  br i1 %20, label %21, label %37

21:                                               ; preds = %17
  call void @llvm.lifetime.start.p0(i64 8, ptr %7) #14
  %22 = load ptr, ptr %6, align 8, !tbaa !44
  %23 = getelementptr inbounds %struct.lua_TValue, ptr %22, i64 -1
  store ptr %23, ptr %7, align 8, !tbaa !44
  call void @llvm.lifetime.start.p0(i64 8, ptr %8) #14
  %24 = load ptr, ptr %6, align 8, !tbaa !44
  store ptr %24, ptr %8, align 8, !tbaa !44
  %25 = load ptr, ptr %8, align 8, !tbaa !44
  %26 = getelementptr inbounds nuw %struct.lua_TValue, ptr %25, i32 0, i32 0
  %27 = load ptr, ptr %7, align 8, !tbaa !44
  %28 = getelementptr inbounds nuw %struct.lua_TValue, ptr %27, i32 0, i32 0
  call void @llvm.memcpy.p0.p0.i64(ptr align 8 %26, ptr align 8 %28, i64 8, i1 false), !tbaa.struct !47
  %29 = load ptr, ptr %7, align 8, !tbaa !44
  %30 = getelementptr inbounds nuw %struct.lua_TValue, ptr %29, i32 0, i32 1
  %31 = load i32, ptr %30, align 8, !tbaa !46
  %32 = load ptr, ptr %8, align 8, !tbaa !44
  %33 = getelementptr inbounds nuw %struct.lua_TValue, ptr %32, i32 0, i32 1
  store i32 %31, ptr %33, align 8, !tbaa !46
  call void @llvm.lifetime.end.p0(i64 8, ptr %8) #14
  call void @llvm.lifetime.end.p0(i64 8, ptr %7) #14
  br label %34

34:                                               ; preds = %21
  %35 = load ptr, ptr %6, align 8, !tbaa !44
  %36 = getelementptr inbounds %struct.lua_TValue, ptr %35, i32 -1
  store ptr %36, ptr %6, align 8, !tbaa !44
  br label %17, !llvm.loop !297

37:                                               ; preds = %17
  call void @llvm.lifetime.start.p0(i64 8, ptr %9) #14
  %38 = load ptr, ptr %3, align 8, !tbaa !11
  %39 = getelementptr inbounds nuw %struct.lua_State, ptr %38, i32 0, i32 4
  %40 = load ptr, ptr %39, align 8, !tbaa !43
  store ptr %40, ptr %9, align 8, !tbaa !44
  call void @llvm.lifetime.start.p0(i64 8, ptr %10) #14
  %41 = load ptr, ptr %5, align 8, !tbaa !44
  store ptr %41, ptr %10, align 8, !tbaa !44
  %42 = load ptr, ptr %10, align 8, !tbaa !44
  %43 = getelementptr inbounds nuw %struct.lua_TValue, ptr %42, i32 0, i32 0
  %44 = load ptr, ptr %9, align 8, !tbaa !44
  %45 = getelementptr inbounds nuw %struct.lua_TValue, ptr %44, i32 0, i32 0
  call void @llvm.memcpy.p0.p0.i64(ptr align 8 %43, ptr align 8 %45, i64 8, i1 false), !tbaa.struct !47
  %46 = load ptr, ptr %9, align 8, !tbaa !44
  %47 = getelementptr inbounds nuw %struct.lua_TValue, ptr %46, i32 0, i32 1
  %48 = load i32, ptr %47, align 8, !tbaa !46
  %49 = load ptr, ptr %10, align 8, !tbaa !44
  %50 = getelementptr inbounds nuw %struct.lua_TValue, ptr %49, i32 0, i32 1
  store i32 %48, ptr %50, align 8, !tbaa !46
  call void @llvm.lifetime.end.p0(i64 8, ptr %10) #14
  call void @llvm.lifetime.end.p0(i64 8, ptr %9) #14
  call void @llvm.lifetime.end.p0(i64 8, ptr %6) #14
  call void @llvm.lifetime.end.p0(i64 8, ptr %5) #14
  ret void
}

; Function Attrs: nounwind uwtable
define internal void @lua_pushnil(ptr noundef %0) #0 {
  %2 = alloca ptr, align 8
  store ptr %0, ptr %2, align 8, !tbaa !11
  %3 = load ptr, ptr %2, align 8, !tbaa !11
  %4 = getelementptr inbounds nuw %struct.lua_State, ptr %3, i32 0, i32 4
  %5 = load ptr, ptr %4, align 8, !tbaa !43
  %6 = getelementptr inbounds nuw %struct.lua_TValue, ptr %5, i32 0, i32 1
  store i32 0, ptr %6, align 8, !tbaa !46
  %7 = load ptr, ptr %2, align 8, !tbaa !11
  %8 = getelementptr inbounds nuw %struct.lua_State, ptr %7, i32 0, i32 4
  %9 = load ptr, ptr %8, align 8, !tbaa !43
  %10 = getelementptr inbounds nuw %struct.lua_TValue, ptr %9, i32 1
  store ptr %10, ptr %8, align 8, !tbaa !43
  ret void
}

; Function Attrs: nounwind uwtable
define internal ptr @luaL_checklstring(ptr noundef %0, i32 noundef %1, ptr noundef %2) #0 {
  %4 = alloca ptr, align 8
  %5 = alloca i32, align 4
  %6 = alloca ptr, align 8
  %7 = alloca ptr, align 8
  store ptr %0, ptr %4, align 8, !tbaa !11
  store i32 %1, ptr %5, align 4, !tbaa !4
  store ptr %2, ptr %6, align 8, !tbaa !61
  call void @llvm.lifetime.start.p0(i64 8, ptr %7) #14
  %8 = load ptr, ptr %4, align 8, !tbaa !11
  %9 = load i32, ptr %5, align 4, !tbaa !4
  %10 = load ptr, ptr %6, align 8, !tbaa !61
  %11 = call ptr @lua_tolstring(ptr noundef %8, i32 noundef %9, ptr noundef %10)
  store ptr %11, ptr %7, align 8, !tbaa !13
  %12 = load ptr, ptr %7, align 8, !tbaa !13
  %13 = icmp ne ptr %12, null
  br i1 %13, label %17, label %14

14:                                               ; preds = %3
  %15 = load ptr, ptr %4, align 8, !tbaa !11
  %16 = load i32, ptr %5, align 4, !tbaa !4
  call void @tag_error(ptr noundef %15, i32 noundef %16, i32 noundef 4)
  br label %17

17:                                               ; preds = %14, %3
  %18 = load ptr, ptr %7, align 8, !tbaa !13
  call void @llvm.lifetime.end.p0(i64 8, ptr %7) #14
  ret ptr %18
}

; Function Attrs: nounwind uwtable
define internal i32 @lua_type(ptr noundef %0, i32 noundef %1) #0 {
  %3 = alloca ptr, align 8
  %4 = alloca i32, align 4
  %5 = alloca ptr, align 8
  store ptr %0, ptr %3, align 8, !tbaa !11
  store i32 %1, ptr %4, align 4, !tbaa !4
  call void @llvm.lifetime.start.p0(i64 8, ptr %5) #14
  %6 = load ptr, ptr %3, align 8, !tbaa !11
  %7 = load i32, ptr %4, align 4, !tbaa !4
  %8 = call ptr @index2adr(ptr noundef %6, i32 noundef %7)
  store ptr %8, ptr %5, align 8, !tbaa !44
  %9 = load ptr, ptr %5, align 8, !tbaa !44
  %10 = icmp eq ptr %9, @luaO_nilobject_
  br i1 %10, label %11, label %12

11:                                               ; preds = %2
  br label %16

12:                                               ; preds = %2
  %13 = load ptr, ptr %5, align 8, !tbaa !44
  %14 = getelementptr inbounds nuw %struct.lua_TValue, ptr %13, i32 0, i32 1
  %15 = load i32, ptr %14, align 8, !tbaa !46
  br label %16

16:                                               ; preds = %12, %11
  %17 = phi i32 [ -1, %11 ], [ %15, %12 ]
  call void @llvm.lifetime.end.p0(i64 8, ptr %5) #14
  ret i32 %17
}

; Function Attrs: nounwind uwtable
define internal i32 @load_aux(ptr noundef %0, i32 noundef %1) #0 {
  %3 = alloca i32, align 4
  %4 = alloca ptr, align 8
  %5 = alloca i32, align 4
  store ptr %0, ptr %4, align 8, !tbaa !11
  store i32 %1, ptr %5, align 4, !tbaa !4
  %6 = load i32, ptr %5, align 4, !tbaa !4
  %7 = icmp eq i32 %6, 0
  br i1 %7, label %8, label %9

8:                                                ; preds = %2
  store i32 1, ptr %3, align 4
  br label %12

9:                                                ; preds = %2
  %10 = load ptr, ptr %4, align 8, !tbaa !11
  call void @lua_pushnil(ptr noundef %10)
  %11 = load ptr, ptr %4, align 8, !tbaa !11
  call void @lua_insert(ptr noundef %11, i32 noundef -2)
  store i32 2, ptr %3, align 4
  br label %12

12:                                               ; preds = %9, %8
  %13 = load i32, ptr %3, align 4
  ret i32 %13
}

; Function Attrs: nounwind uwtable
define internal ptr @luaL_optlstring(ptr noundef %0, i32 noundef %1, ptr noundef %2, ptr noundef %3) #0 {
  %5 = alloca ptr, align 8
  %6 = alloca ptr, align 8
  %7 = alloca i32, align 4
  %8 = alloca ptr, align 8
  %9 = alloca ptr, align 8
  store ptr %0, ptr %6, align 8, !tbaa !11
  store i32 %1, ptr %7, align 4, !tbaa !4
  store ptr %2, ptr %8, align 8, !tbaa !13
  store ptr %3, ptr %9, align 8, !tbaa !61
  %10 = load ptr, ptr %6, align 8, !tbaa !11
  %11 = load i32, ptr %7, align 4, !tbaa !4
  %12 = call i32 @lua_type(ptr noundef %10, i32 noundef %11)
  %13 = icmp sle i32 %12, 0
  br i1 %13, label %14, label %29

14:                                               ; preds = %4
  %15 = load ptr, ptr %9, align 8, !tbaa !61
  %16 = icmp ne ptr %15, null
  br i1 %16, label %17, label %27

17:                                               ; preds = %14
  %18 = load ptr, ptr %8, align 8, !tbaa !13
  %19 = icmp ne ptr %18, null
  br i1 %19, label %20, label %23

20:                                               ; preds = %17
  %21 = load ptr, ptr %8, align 8, !tbaa !13
  %22 = call i64 @strlen(ptr noundef %21) #15
  br label %24

23:                                               ; preds = %17
  br label %24

24:                                               ; preds = %23, %20
  %25 = phi i64 [ %22, %20 ], [ 0, %23 ]
  %26 = load ptr, ptr %9, align 8, !tbaa !61
  store i64 %25, ptr %26, align 8, !tbaa !53
  br label %27

27:                                               ; preds = %24, %14
  %28 = load ptr, ptr %8, align 8, !tbaa !13
  store ptr %28, ptr %5, align 8
  br label %34

29:                                               ; preds = %4
  %30 = load ptr, ptr %6, align 8, !tbaa !11
  %31 = load i32, ptr %7, align 4, !tbaa !4
  %32 = load ptr, ptr %9, align 8, !tbaa !61
  %33 = call ptr @luaL_checklstring(ptr noundef %30, i32 noundef %31, ptr noundef %32)
  store ptr %33, ptr %5, align 8
  br label %34

34:                                               ; preds = %29, %27
  %35 = load ptr, ptr %5, align 8
  ret ptr %35
}

; Function Attrs: nounwind uwtable
define internal i32 @luaB_loadfile(ptr noundef %0) #0 {
  %2 = alloca ptr, align 8
  %3 = alloca ptr, align 8
  store ptr %0, ptr %2, align 8, !tbaa !11
  call void @llvm.lifetime.start.p0(i64 8, ptr %3) #14
  %4 = load ptr, ptr %2, align 8, !tbaa !11
  %5 = call ptr @luaL_optlstring(ptr noundef %4, i32 noundef 1, ptr noundef null, ptr noundef null)
  store ptr %5, ptr %3, align 8, !tbaa !13
  %6 = load ptr, ptr %2, align 8, !tbaa !11
  %7 = load ptr, ptr %2, align 8, !tbaa !11
  %8 = load ptr, ptr %3, align 8, !tbaa !13
  %9 = call i32 @luaL_loadfile(ptr noundef %7, ptr noundef %8)
  %10 = call i32 @load_aux(ptr noundef %6, i32 noundef %9)
  call void @llvm.lifetime.end.p0(i64 8, ptr %3) #14
  ret i32 %10
}