; Function Attrs: nounwind uwtable
define internal range(i32 1, 3) i32 @luaB_loadfile(ptr noundef %0) #0 {
  %2 = getelementptr inbounds nuw i8, ptr %0, i64 24
  %3 = load ptr, ptr %2, align 8, !tbaa !86
  %4 = getelementptr inbounds nuw i8, ptr %0, i64 16
  %5 = load ptr, ptr %4, align 8, !tbaa !62
  %.not28.i.i.i = icmp uge ptr %3, %5
  %6 = icmp eq ptr %3, @luaO_nilobject_
  %or.cond.i = or i1 %6, %.not28.i.i.i
  br i1 %or.cond.i, label %luaL_optlstring.exit, label %lua_type.exit.i

lua_type.exit.i:                                  ; preds = %1
  %7 = getelementptr i8, ptr %3, i64 8
  %8 = load i32, ptr %7, align 8, !tbaa !69
  %9 = icmp slt i32 %8, 1
  br i1 %9, label %luaL_optlstring.exit, label %10

10:                                               ; preds = %lua_type.exit.i
  %11 = tail call fastcc ptr @lua_tolstring(ptr noundef nonnull %0, i32 noundef 1, ptr noundef null)
  %.not.i.i = icmp eq ptr %11, null
  br i1 %.not.i.i, label %12, label %luaL_optlstring.exit

12:                                               ; preds = %10
  tail call fastcc void @luaL_typerror(ptr noundef nonnull %0, i32 noundef 1, ptr noundef nonnull @.str.26)
  unreachable

luaL_optlstring.exit:                             ; preds = %1, %lua_type.exit.i, %10
  %.0.i = phi ptr [ %11, %10 ], [ null, %lua_type.exit.i ], [ null, %1 ]
  %13 = tail call fastcc i32 @luaL_loadfile(ptr noundef nonnull %0, ptr noundef %.0.i)
  %14 = icmp eq i32 %13, 0
  br i1 %14, label %load_aux.exit, label %15

15:                                               ; preds = %luaL_optlstring.exit
  %16 = load ptr, ptr %4, align 8, !tbaa !62
  %17 = getelementptr inbounds nuw i8, ptr %16, i64 8
  store i32 0, ptr %17, align 8, !tbaa !69
  %18 = getelementptr inbounds nuw i8, ptr %16, i64 16
  store ptr %18, ptr %4, align 8, !tbaa !62
  br label %.lr.ph.i.i

.lr.ph.i.i:                                       ; preds = %.lr.ph.i.i, %15
  %.018.i.i = phi ptr [ %19, %.lr.ph.i.i ], [ %18, %15 ]
  %19 = getelementptr inbounds i8, ptr %.018.i.i, i64 -16
  %20 = load i64, ptr %19, align 8, !tbaa !46
  store i64 %20, ptr %.018.i.i, align 8, !tbaa !46
  %21 = getelementptr inbounds i8, ptr %.018.i.i, i64 -8
  %22 = load i32, ptr %21, align 8, !tbaa !69
  %23 = getelementptr inbounds nuw i8, ptr %.018.i.i, i64 8
  store i32 %22, ptr %23, align 8, !tbaa !69
  %24 = icmp ugt ptr %.018.i.i, %16
  br i1 %24, label %.lr.ph.i.i, label %lua_insert.exit.i, !llvm.loop !259

lua_insert.exit.i:                                ; preds = %.lr.ph.i.i
  %25 = getelementptr inbounds i8, ptr %16, i64 -16
  %.pre.i.i = load ptr, ptr %4, align 8, !tbaa !62
  %26 = load i64, ptr %.pre.i.i, align 8, !tbaa !46
  store i64 %26, ptr %25, align 8, !tbaa !46
  %27 = getelementptr inbounds nuw i8, ptr %.pre.i.i, i64 8
  %28 = load i32, ptr %27, align 8, !tbaa !69
  %29 = getelementptr inbounds i8, ptr %16, i64 -8
  store i32 %28, ptr %29, align 8, !tbaa !69
  br label %load_aux.exit

load_aux.exit:                                    ; preds = %luaL_optlstring.exit, %lua_insert.exit.i
  %.0.i4 = phi i32 [ 2, %lua_insert.exit.i ], [ 1, %luaL_optlstring.exit ]
  ret i32 %.0.i4
}